target datalayout = "e-m:e-p270:32:32-p271:32:32-p272:64:64-i64:64-i128:128-f80:128-n8:16:32:64-S128"
target triple = "x86_64-pc-linux-gnu"

%struct.Abc_Ntk_t_ = type { i32, i32, ptr, ptr, ptr, ptr, ptr, ptr, ptr, ptr, ptr, ptr, ptr, [11 x i32], i32, i32, i32, i32, ptr, i32, ptr, ptr, i32, i32, i32, double, i32, %struct.Vec_Int_t_, ptr, ptr, ptr, ptr, ptr, float, i32, ptr, ptr, ptr, ptr, ptr, ptr, ptr, ptr, ptr, ptr, ptr, ptr, ptr, ptr, ptr, ptr, ptr, ptr, ptr, ptr, ptr, ptr }
%struct.Vec_Int_t_ = type { i32, i32, ptr }
%struct.Abc_Obj_t_ = type { ptr, ptr, i32, i32, %struct.Vec_Int_t_, %struct.Vec_Int_t_, %union.anon, %union.anon.0 }
%union.anon = type { ptr }
%union.anon.0 = type { ptr }
%struct.Vec_Ptr_t_ = type { i32, i32, ptr }

@.str.5 = private unnamed_addr constant [16 x i8] c"Unsatisfiable.\0A\00", align 1
@.str.6 = private unnamed_addr constant [28 x i8] c"Satisfiable. (Constant 1).\0A\00", align 1
@.str.7 = private unnamed_addr constant [14 x i8] c"Satisfiable.\0A\00", align 1
@.str.8 = private unnamed_addr constant [15 x i8] c"Output #%2d : \00", align 1

; Function Attrs: inlinehint nounwind uwtable
define internal ptr @Abc_ObjRegular(ptr noundef %0) #3 {
  %2 = alloca ptr, align 8
  store ptr %0, ptr %2, align 8, !tbaa !28
  %3 = load ptr, ptr %2, align 8, !tbaa !28
  %4 = ptrtoint ptr %3 to i64
  %5 = and i64 %4, -2
  %6 = inttoptr i64 %5 to ptr
  ret ptr %6
}

; Function Attrs: inlinehint nounwind uwtable
define internal ptr @Abc_ObjNotCond(ptr noundef %0, i32 noundef %1) #3 {
  %3 = alloca ptr, align 8
  %4 = alloca i32, align 4
  store ptr %0, ptr %3, align 8, !tbaa !28
  store i32 %1, ptr %4, align 4, !tbaa !8
  %5 = load ptr, ptr %3, align 8, !tbaa !28
  %6 = ptrtoint ptr %5 to i64
  %7 = load i32, ptr %4, align 4, !tbaa !8
  %8 = icmp ne i32 %7, 0
  %9 = zext i1 %8 to i32
  %10 = sext i32 %9 to i64
  %11 = xor i64 %6, %10
  %12 = inttoptr i64 %11 to ptr
  ret ptr %12
}

; Function Attrs: inlinehint nounwind uwtable
define internal i32 @Abc_ObjFaninC0(ptr noundef %0) #3 {
  %2 = alloca ptr, align 8
  store ptr %0, ptr %2, align 8, !tbaa !28
  %3 = load ptr, ptr %2, align 8, !tbaa !28
  %4 = getelementptr inbounds nuw %struct.Abc_Obj_t_, ptr %3, i32 0, i32 3
  %5 = load i32, ptr %4, align 4
  %6 = lshr i32 %5, 10
  %7 = and i32 %6, 1
  ret i32 %7
}

; Function Attrs: inlinehint nounwind uwtable
define internal ptr @Abc_ObjFanin0(ptr noundef %0) #3 {
  %2 = alloca ptr, align 8
  store ptr %0, ptr %2, align 8, !tbaa !28
  %3 = load ptr, ptr %2, align 8, !tbaa !28
  %4 = getelementptr inbounds nuw %struct.Abc_Obj_t_, ptr %3, i32 0, i32 0
  %5 = load ptr, ptr %4, align 8, !tbaa !48
  %6 = getelementptr inbounds nuw %struct.Abc_Ntk_t_, ptr %5, i32 0, i32 5
  %7 = load ptr, ptr %6, align 8, !tbaa !45
  %8 = getelementptr inbounds nuw %struct.Vec_Ptr_t_, ptr %7, i32 0, i32 2
  %9 = load ptr, ptr %8, align 8, !tbaa !36
  %10 = load ptr, ptr %2, align 8, !tbaa !28
  %11 = getelementptr inbounds nuw %struct.Abc_Obj_t_, ptr %10, i32 0, i32 4
  %12 = getelementptr inbounds nuw %struct.Vec_Int_t_, ptr %11, i32 0, i32 2
  %13 = load ptr, ptr %12, align 8, !tbaa !50
  %14 = getelementptr inbounds i32, ptr %13, i64 0
  %15 = load i32, ptr %14, align 4, !tbaa !8
  %16 = sext i32 %15 to i64
  %17 = getelementptr inbounds ptr, ptr %9, i64 %16
  %18 = load ptr, ptr %17, align 8, !tbaa !37
  ret ptr %18
}

; Function Attrs: inlinehint nounwind uwtable
define internal ptr @Vec_PtrEntry(ptr noundef %0, i32 noundef %1) #3 {
  %3 = alloca ptr, align 8
  %4 = alloca i32, align 4
  store ptr %0, ptr %3, align 8, !tbaa !31
  store i32 %1, ptr %4, align 4, !tbaa !8
  %5 = load ptr, ptr %3, align 8, !tbaa !31
  %6 = getelementptr inbounds nuw %struct.Vec_Ptr_t_, ptr %5, i32 0, i32 2
  %7 = load ptr, ptr %6, align 8, !tbaa !36
  %8 = load i32, ptr %4, align 4, !tbaa !8
  %9 = sext i32 %8 to i64
  %10 = getelementptr inbounds ptr, ptr %7, i64 %9
  %11 = load ptr, ptr %10, align 8, !tbaa !37
  ret ptr %11
}

; Function Attrs: inlinehint nounwind uwtable
define internal i32 @Vec_PtrSize(ptr noundef %0) #3 {
  %2 = alloca ptr, align 8
  store ptr %0, ptr %2, align 8, !tbaa !31
  %3 = load ptr, ptr %2, align 8, !tbaa !31
  %4 = getelementptr inbounds nuw %struct.Vec_Ptr_t_, ptr %3, i32 0, i32 1
  %5 = load i32, ptr %4, align 4, !tbaa !34
  ret i32 %5
}

; Function Attrs: inlinehint nounwind uwtable
define internal i32 @Abc_ObjIsComplement(ptr noundef %0) #3 {
  %2 = alloca ptr, align 8
  store ptr %0, ptr %2, align 8, !tbaa !28
  %3 = load ptr, ptr %2, align 8, !tbaa !28
  %4 = ptrtoint ptr %3 to i64
  %5 = and i64 %4, 1
  %6 = trunc i64 %5 to i32
  ret i32 %6
}

; Function Attrs: inlinehint nounwind uwtable
define internal i32 @Abc_AigNodeIsConst(ptr noundef %0) #3 {
  %2 = alloca ptr, align 8
  store ptr %0, ptr %2, align 8, !tbaa !28
  %3 = load ptr, ptr %2, align 8, !tbaa !28
  %4 = call ptr @Abc_ObjRegular(ptr noundef %3)
  %5 = getelementptr inbounds nuw %struct.Abc_Obj_t_, ptr %4, i32 0, i32 3
  %6 = load i32, ptr %5, align 4
  %7 = and i32 %6, 15
  %8 = icmp eq i32 %7, 1
  %9 = zext i1 %8 to i32
  ret i32 %9
}

; Function Attrs: inlinehint nounwind uwtable
define internal ptr @Abc_ObjChild0(ptr noundef %0) #3 {
  %2 = alloca ptr, align 8
  store ptr %0, ptr %2, align 8, !tbaa !28
  %3 = load ptr, ptr %2, align 8, !tbaa !28
  %4 = call ptr @Abc_ObjFanin0(ptr noundef %3)
  %5 = load ptr, ptr %2, align 8, !tbaa !28
  %6 = call i32 @Abc_ObjFaninC0(ptr noundef %5)
  %7 = call ptr @Abc_ObjNotCond(ptr noundef %4, i32 noundef %6)
  ret ptr %7
}

; Function Attrs: inlinehint nounwind uwtable
define internal ptr @Abc_NtkPo(ptr noundef %0, i32 noundef %1) #3 {
  %3 = alloca ptr, align 8
  %4 = alloca i32, align 4
  store ptr %0, ptr %3, align 8, !tbaa !3
  store i32 %1, ptr %4, align 4, !tbaa !8
  %5 = load ptr, ptr %3, align 8, !tbaa !3
  %6 = getelementptr inbounds nuw %struct.Abc_Ntk_t_, ptr %5, i32 0, i32 7
  %7 = load ptr, ptr %6, align 8, !tbaa !47
  %8 = load i32, ptr %4, align 4, !tbaa !8
  %9 = call ptr @Vec_PtrEntry(ptr noundef %7, i32 noundef %8)
  ret ptr %9
}

; Function Attrs: inlinehint nounwind uwtable
define internal i32 @Abc_NtkPoNum(ptr noundef %0) #3 {
  %2 = alloca ptr, align 8
  store ptr %0, ptr %2, align 8, !tbaa !3
  %3 = load ptr, ptr %2, align 8, !tbaa !3
  %4 = getelementptr inbounds nuw %struct.Abc_Ntk_t_, ptr %3, i32 0, i32 7
  %5 = load ptr, ptr %4, align 8, !tbaa !47
  %6 = call i32 @Vec_PtrSize(ptr noundef %5)
  ret i32 %6
}

; Function Attrs: nounwind uwtable
define void @Abc_NtkMiterReport(ptr noundef %0) #0 {
  %2 = alloca ptr, align 8
  %3 = alloca ptr, align 8
  %4 = alloca ptr, align 8
  %5 = alloca i32, align 4
  store ptr %0, ptr %2, align 8, !tbaa !3
  call void @llvm.lifetime.start.p0(i64 8, ptr %3) #9
  call void @llvm.lifetime.start.p0(i64 8, ptr %4) #9
  call void @llvm.lifetime.start.p0(i64 4, ptr %5) #9
  %6 = load ptr, ptr %2, align 8, !tbaa !3
  %7 = call i32 @Abc_NtkPoNum(ptr noundef %6)
  %8 = icmp eq i32 %7, 1
  br i1 %8, label %9, label %28

9:                                                ; preds = %1
  %10 = load ptr, ptr %2, align 8, !tbaa !3
  %11 = call ptr @Abc_NtkPo(ptr noundef %10, i32 noundef 0)
  %12 = call ptr @Abc_ObjChild0(ptr noundef %11)
  store ptr %12, ptr %3, align 8, !tbaa !28
  %13 = load ptr, ptr %3, align 8, !tbaa !28
  %14 = call i32 @Abc_AigNodeIsConst(ptr noundef %13)
  %15 = icmp ne i32 %14, 0
  br i1 %15, label %16, label %25

16:                                               ; preds = %9
  %17 = load ptr, ptr %3, align 8, !tbaa !28
  %18 = call i32 @Abc_ObjIsComplement(ptr noundef %17)
  %19 = icmp ne i32 %18, 0
  br i1 %19, label %20, label %22

20:                                               ; preds = %16
  %21 = call i32 (ptr, ...) @printf(ptr noundef @.str.5)
  br label %24

22:                                               ; preds = %16
  %23 = call i32 (ptr, ...) @printf(ptr noundef @.str.6)
  br label %24

24:                                               ; preds = %22, %20
  br label %27

25:                                               ; preds = %9
  %26 = call i32 (ptr, ...) @printf(ptr noundef @.str.7)
  br label %27

27:                                               ; preds = %25, %24
  br label %66

28:                                               ; preds = %1
  store i32 0, ptr %5, align 4, !tbaa !8
  br label %29

29:                                               ; preds = %62, %28
  %30 = load i32, ptr %5, align 4, !tbaa !8
  %31 = load ptr, ptr %2, align 8, !tbaa !3
  %32 = call i32 @Abc_NtkPoNum(ptr noundef %31)
  %33 = icmp slt i32 %30, %32
  br i1 %33, label %34, label %38

34:                                               ; preds = %29
  %35 = load ptr, ptr %2, align 8, !tbaa !3
  %36 = load i32, ptr %5, align 4, !tbaa !8
  %37 = call ptr @Abc_NtkPo(ptr noundef %35, i32 noundef %36)
  store ptr %37, ptr %4, align 8, !tbaa !28
  br label %38

38:                                               ; preds = %34, %29
  %39 = phi i1 [ false, %29 ], [ true, %34 ]
  br i1 %39, label %40, label %65

40:                                               ; preds = %38
  %41 = load ptr, ptr %2, align 8, !tbaa !3
  %42 = load i32, ptr %5, align 4, !tbaa !8
  %43 = call ptr @Abc_NtkPo(ptr noundef %41, i32 noundef %42)
  %44 = call ptr @Abc_ObjChild0(ptr noundef %43)
  store ptr %44, ptr %3, align 8, !tbaa !28
  %45 = load i32, ptr %5, align 4, !tbaa !8
  %46 = call i32 (ptr, ...) @printf(ptr noundef @.str.8, i32 noundef %45)
  %47 = load ptr, ptr %3, align 8, !tbaa !28
  %48 = call i32 @Abc_AigNodeIsConst(ptr noundef %47)
  %49 = icmp ne i32 %48, 0
  br i1 %49, label %50, label %59

50:                                               ; preds = %40
  %51 = load ptr, ptr %3, align 8, !tbaa !28
  %52 = call i32 @Abc_ObjIsComplement(ptr noundef %51)
  %53 = icmp ne i32 %52, 0
  br i1 %53, label %54, label %56

54:                                               ; preds = %50
  %55 = call i32 (ptr, ...) @printf(ptr noundef @.str.5)
  br label %58

56:                                               ; preds = %50
  %57 = call i32 (ptr, ...) @printf(ptr noundef @.str.6)
  br label %58

58:                                               ; preds = %56, %54
  br label %61

59:                                               ; preds = %40
  %60 = call i32 (ptr, ...) @printf(ptr noundef @.str.7)
  br label %61

61:                                               ; preds = %59, %58
  br label %62

62:                                               ; preds = %61
  %63 = load i32, ptr %5, align 4, !tbaa !8
  %64 = add nsw i32 %63, 1
  store i32 %64, ptr %5, align 4, !tbaa !8
  br label %29, !llvm.loop !61

65:                                               ; preds = %38
  br label %66

66:                                               ; preds = %65, %27
  call void @llvm.lifetime.end.p0(i64 4, ptr %5) #9
  call void @llvm.lifetime.end.p0(i64 8, ptr %4) #9
  call void @llvm.lifetime.end.p0(i64 8, ptr %3) #9
  ret void
}