; Function Attrs: nofree nounwind uwtable
define void @Abc_NtkMiterReport(ptr noundef readonly captures(none) %0) local_unnamed_addr #5 {
  %2 = getelementptr i8, ptr %0, i64 48
  %.val21 = load ptr, ptr %2, align 8, !tbaa !43
  %3 = getelementptr i8, ptr %.val21, i64 4
  %.val21.val = load i32, ptr %3, align 4, !tbaa !26
  %4 = icmp eq i32 %.val21.val, 1
  br i1 %4, label %6, label %.preheader

.preheader:                                       ; preds = %1
  %5 = icmp sgt i32 %.val21.val, 0
  br i1 %5, label %.lr.ph, label %.critedge

6:                                                ; preds = %1
  %7 = getelementptr i8, ptr %.val21, i64 8
  %.val24.val = load ptr, ptr %7, align 8, !tbaa !28
  %8 = load ptr, ptr %.val24.val, align 8, !tbaa !29
  %.val.i = load ptr, ptr %8, align 8, !tbaa !34
  %9 = getelementptr i8, ptr %8, i64 32
  %.val2.i = load ptr, ptr %9, align 8, !tbaa !35
  %10 = getelementptr i8, ptr %.val.i, i64 32
  %.val.val.i = load ptr, ptr %10, align 8, !tbaa !25
  %.val2.val.i = load i32, ptr %.val2.i, align 4, !tbaa !36
  %11 = getelementptr i8, ptr %.val.val.i, i64 8
  %.val.val.val.i = load ptr, ptr %11, align 8, !tbaa !28
  %12 = sext i32 %.val2.val.i to i64
  %13 = getelementptr inbounds ptr, ptr %.val.val.val.i, i64 %12
  %14 = load ptr, ptr %13, align 8, !tbaa !29
  %15 = ptrtoint ptr %14 to i64
  %16 = and i64 %15, -2
  %17 = inttoptr i64 %16 to ptr
  %18 = getelementptr inbounds nuw i8, ptr %17, i64 20
  %19 = load i32, ptr %18, align 4
  %20 = and i32 %19, 15
  %.not32 = icmp eq i32 %20, 1
  br i1 %.not32, label %21, label %.critedge.sink.split

21:                                               ; preds = %6
  %22 = getelementptr i8, ptr %8, i64 20
  %.val3.i = load i32, ptr %22, align 4
  %23 = lshr i32 %.val3.i, 10
  %24 = trunc i64 %15 to i32
  %25 = xor i32 %23, %24
  %26 = and i32 %25, 1
  %.not18 = icmp eq i32 %26, 0
  %str.9.str.10 = select i1 %.not18, ptr @str.9, ptr @str.10
  br label %.critedge.sink.split

.lr.ph:                                           ; preds = %.preheader, %50
  %indvars.iv = phi i64 [ %indvars.iv.next, %50 ], [ 0, %.preheader ]
  %.val36 = phi ptr [ %.val, %50 ], [ %.val21, %.preheader ]
  %27 = getelementptr i8, ptr %.val36, i64 8
  %.val23.val = load ptr, ptr %27, align 8, !tbaa !28
  %28 = getelementptr inbounds nuw ptr, ptr %.val23.val, i64 %indvars.iv
  %29 = load ptr, ptr %28, align 8, !tbaa !29
  %.val.i25 = load ptr, ptr %29, align 8, !tbaa !34
  %30 = getelementptr i8, ptr %29, i64 32
  %.val2.i26 = load ptr, ptr %30, align 8, !tbaa !35
  %31 = getelementptr i8, ptr %.val.i25, i64 32
  %.val.val.i27 = load ptr, ptr %31, align 8, !tbaa !25
  %.val2.val.i28 = load i32, ptr %.val2.i26, align 4, !tbaa !36
  %32 = getelementptr i8, ptr %.val.val.i27, i64 8
  %.val.val.val.i29 = load ptr, ptr %32, align 8, !tbaa !28
  %33 = sext i32 %.val2.val.i28 to i64
  %34 = getelementptr inbounds ptr, ptr %.val.val.val.i29, i64 %33
  %35 = load ptr, ptr %34, align 8, !tbaa !29
  %36 = getelementptr i8, ptr %29, i64 20
  %.val3.i30 = load i32, ptr %36, align 4
  %37 = ptrtoint ptr %35 to i64
  %38 = trunc nuw nsw i64 %indvars.iv to i32
  %39 = tail call i32 (ptr, ...) @printf(ptr noundef nonnull dereferenceable(1) @.str.8, i32 noundef %38)
  %40 = and i64 %37, -2
  %41 = inttoptr i64 %40 to ptr
  %42 = getelementptr inbounds nuw i8, ptr %41, i64 20
  %43 = load i32, ptr %42, align 4
  %44 = and i32 %43, 15
  %.not = icmp eq i32 %44, 1
  br i1 %.not, label %45, label %50

45:                                               ; preds = %.lr.ph
  %46 = lshr i32 %.val3.i30, 10
  %47 = trunc i64 %37 to i32
  %48 = xor i32 %46, %47
  %49 = and i32 %48, 1
  %.not13 = icmp eq i32 %49, 0
  %str.6.str.7 = select i1 %.not13, ptr @str.9, ptr @str.10
  br label %50

50:                                               ; preds = %.lr.ph, %45
  %str.5.sink = phi ptr [ %str.6.str.7, %45 ], [ @str.8, %.lr.ph ]
  %puts = tail call i32 @puts(ptr nonnull dereferenceable(1) %str.5.sink)
  %indvars.iv.next = add nuw nsw i64 %indvars.iv, 1
  %.val = load ptr, ptr %2, align 8, !tbaa !43
  %51 = getelementptr i8, ptr %.val, i64 4
  %.val.val = load i32, ptr %51, align 4, !tbaa !26
  %52 = sext i32 %.val.val to i64
  %53 = icmp slt i64 %indvars.iv.next, %52
  br i1 %53, label %.lr.ph, label %.critedge, !llvm.loop !67

.critedge.sink.split:                             ; preds = %6, %21
  %str.8.sink = phi ptr [ %str.9.str.10, %21 ], [ @str.8, %6 ]
  %puts17 = tail call i32 @puts(ptr nonnull dereferenceable(1) %str.8.sink)
  br label %.critedge

.critedge:                                        ; preds = %50, %.critedge.sink.split, %.preheader
  ret void
}